target datalayout = "e-m:e-p270:32:32-p271:32:32-p272:64:64-i64:64-i128:128-f80:128-n8:16:32:64-S128"
target triple = "x86_64-pc-linux-gnu"

; Function Attrs: nounwind uwtable
define i32 @TextLength(ptr noundef %0) #0 {
  %2 = alloca ptr, align 8
  %3 = alloca i32, align 4
  store ptr %0, ptr %2, align 8
  call void @llvm.lifetime.start.p0(i64 4, ptr %3) #13
  store i32 0, ptr %3, align 4
  %4 = load ptr, ptr %2, align 8
  %5 = icmp ne ptr %4, null
  br i1 %5, label %6, label %16

6:                                                ; preds = %1
  br label %7

7:                                                ; preds = %12, %6
  %8 = load ptr, ptr %2, align 8
  %9 = getelementptr inbounds nuw i8, ptr %8, i32 1
  store ptr %9, ptr %2, align 8
  %10 = load i8, ptr %8, align 1
  %11 = icmp ne i8 %10, 0
  br i1 %11, label %12, label %15

12:                                               ; preds = %7
  %13 = load i32, ptr %3, align 4
  %14 = add i32 %13, 1
  store i32 %14, ptr %3, align 4
  br label %7

15:                                               ; preds = %7
  br label %16

16:                                               ; preds = %15, %1
  %17 = load i32, ptr %3, align 4
  call void @llvm.lifetime.end.p0(i64 4, ptr %3) #13
  ret i32 %17
}

; Function Attrs: nounwind uwtable
define ptr @TextInsert(ptr noundef %0, ptr noundef %1, i32 noundef %2) #0 {
  %4 = alloca ptr, align 8
  %5 = alloca ptr, align 8
  %6 = alloca i32, align 4
  %7 = alloca i32, align 4
  %8 = alloca i32, align 4
  %9 = alloca ptr, align 8
  %10 = alloca i32, align 4
  %11 = alloca i32, align 4
  %12 = alloca i32, align 4
  store ptr %0, ptr %4, align 8
  store ptr %1, ptr %5, align 8
  store i32 %2, ptr %6, align 4
  call void @llvm.lifetime.start.p0(i64 4, ptr %7) #13
  %13 = load ptr, ptr %4, align 8
  %14 = call i32 @TextLength(ptr noundef %13)
  store i32 %14, ptr %7, align 4
  call void @llvm.lifetime.start.p0(i64 4, ptr %8) #13
  %15 = load ptr, ptr %5, align 8
  %16 = call i32 @TextLength(ptr noundef %15)
  store i32 %16, ptr %8, align 4
  call void @llvm.lifetime.start.p0(i64 8, ptr %9) #13
  %17 = load i32, ptr %7, align 4
  %18 = load i32, ptr %8, align 4
  %19 = add nsw i32 %17, %18
  %20 = add nsw i32 %19, 1
  %21 = sext i32 %20 to i64
  %22 = call noalias ptr @malloc(i64 noundef %21) #16
  store ptr %22, ptr %9, align 8
  call void @llvm.lifetime.start.p0(i64 4, ptr %10) #13
  store i32 0, ptr %10, align 4
  br label %23

23:                                               ; preds = %38, %3
  %24 = load i32, ptr %10, align 4
  %25 = load i32, ptr %6, align 4
  %26 = icmp slt i32 %24, %25
  br i1 %26, label %28, label %27

27:                                               ; preds = %23
  call void @llvm.lifetime.end.p0(i64 4, ptr %10) #13
  br label %41

28:                                               ; preds = %23
  %29 = load ptr, ptr %4, align 8
  %30 = load i32, ptr %10, align 4
  %31 = sext i32 %30 to i64
  %32 = getelementptr inbounds i8, ptr %29, i64 %31
  %33 = load i8, ptr %32, align 1
  %34 = load ptr, ptr %9, align 8
  %35 = load i32, ptr %10, align 4
  %36 = sext i32 %35 to i64
  %37 = getelementptr inbounds i8, ptr %34, i64 %36
  store i8 %33, ptr %37, align 1
  br label %38

38:                                               ; preds = %28
  %39 = load i32, ptr %10, align 4
  %40 = add nsw i32 %39, 1
  store i32 %40, ptr %10, align 4
  br label %23

41:                                               ; preds = %27
  call void @llvm.lifetime.start.p0(i64 4, ptr %11) #13
  %42 = load i32, ptr %6, align 4
  store i32 %42, ptr %11, align 4
  br label %43

43:                                               ; preds = %60, %41
  %44 = load i32, ptr %11, align 4
  %45 = load i32, ptr %8, align 4
  %46 = load i32, ptr %6, align 4
  %47 = add nsw i32 %45, %46
  %48 = icmp slt i32 %44, %47
  br i1 %48, label %50, label %49

49:                                               ; preds = %43
  call void @llvm.lifetime.end.p0(i64 4, ptr %11) #13
  br label %63

50:                                               ; preds = %43
  %51 = load ptr, ptr %5, align 8
  %52 = load i32, ptr %11, align 4
  %53 = sext i32 %52 to i64
  %54 = getelementptr inbounds i8, ptr %51, i64 %53
  %55 = load i8, ptr %54, align 1
  %56 = load ptr, ptr %9, align 8
  %57 = load i32, ptr %11, align 4
  %58 = sext i32 %57 to i64
  %59 = getelementptr inbounds i8, ptr %56, i64 %58
  store i8 %55, ptr %59, align 1
  br label %60

60:                                               ; preds = %50
  %61 = load i32, ptr %11, align 4
  %62 = add nsw i32 %61, 1
  store i32 %62, ptr %11, align 4
  br label %43

63:                                               ; preds = %49
  call void @llvm.lifetime.start.p0(i64 4, ptr %12) #13
  %64 = load i32, ptr %8, align 4
  %65 = load i32, ptr %6, align 4
  %66 = add nsw i32 %64, %65
  store i32 %66, ptr %12, align 4
  br label %67

67:                                               ; preds = %84, %63
  %68 = load i32, ptr %12, align 4
  %69 = load i32, ptr %7, align 4
  %70 = load i32, ptr %8, align 4
  %71 = add nsw i32 %69, %70
  %72 = icmp slt i32 %68, %71
  br i1 %72, label %74, label %73

73:                                               ; preds = %67
  call void @llvm.lifetime.end.p0(i64 4, ptr %12) #13
  br label %87

74:                                               ; preds = %67
  %75 = load ptr, ptr %4, align 8
  %76 = load i32, ptr %12, align 4
  %77 = sext i32 %76 to i64
  %78 = getelementptr inbounds i8, ptr %75, i64 %77
  %79 = load i8, ptr %78, align 1
  %80 = load ptr, ptr %9, align 8
  %81 = load i32, ptr %12, align 4
  %82 = sext i32 %81 to i64
  %83 = getelementptr inbounds i8, ptr %80, i64 %82
  store i8 %79, ptr %83, align 1
  br label %84

84:                                               ; preds = %74
  %85 = load i32, ptr %12, align 4
  %86 = add nsw i32 %85, 1
  store i32 %86, ptr %12, align 4
  br label %67

87:                                               ; preds = %73
  %88 = load ptr, ptr %9, align 8
  %89 = load i32, ptr %7, align 4
  %90 = load i32, ptr %8, align 4
  %91 = add nsw i32 %89, %90
  %92 = sext i32 %91 to i64
  %93 = getelementptr inbounds i8, ptr %88, i64 %92
  store i8 0, ptr %93, align 1
  %94 = load ptr, ptr %9, align 8
  call void @llvm.lifetime.end.p0(i64 8, ptr %9) #13
  call void @llvm.lifetime.end.p0(i64 4, ptr %8) #13
  call void @llvm.lifetime.end.p0(i64 4, ptr %7) #13
  ret ptr %94
}