; Function Attrs: nofree nounwind uwtable
define noalias noundef ptr @TextInsert(ptr noundef readonly captures(address_is_null) %0, ptr noundef readonly captures(address_is_null) %1, i32 noundef %2) local_unnamed_addr #3 {
  %.not.i = icmp eq ptr %0, null
  br i1 %.not.i, label %TextLength.exit, label %.preheader.i

.preheader.i:                                     ; preds = %3
  %4 = load i8, ptr %0, align 1
  %.not56.i = icmp eq i8 %4, 0
  br i1 %.not56.i, label %TextLength.exit, label %.lr.ph.i

.lr.ph.i:                                         ; preds = %.preheader.i, %.lr.ph.i
  %.18.i = phi i32 [ %6, %.lr.ph.i ], [ 0, %.preheader.i ]
  %.037.i = phi ptr [ %5, %.lr.ph.i ], [ %0, %.preheader.i ]
  %5 = getelementptr inbounds nuw i8, ptr %.037.i, i64 1
  %6 = add i32 %.18.i, 1
  %7 = load i8, ptr %5, align 1
  %.not5.i = icmp eq i8 %7, 0
  br i1 %.not5.i, label %TextLength.exit, label %.lr.ph.i

TextLength.exit:                                  ; preds = %.lr.ph.i, %3, %.preheader.i
  %.0.i = phi i32 [ 0, %3 ], [ 0, %.preheader.i ], [ %6, %.lr.ph.i ]
  %.not.i38 = icmp eq ptr %1, null
  br i1 %.not.i38, label %TextLength.exit46, label %.preheader.i39

.preheader.i39:                                   ; preds = %TextLength.exit
  %8 = load i8, ptr %1, align 1
  %.not56.i40 = icmp eq i8 %8, 0
  br i1 %.not56.i40, label %TextLength.exit46, label %.lr.ph.i41

.lr.ph.i41:                                       ; preds = %.preheader.i39, %.lr.ph.i41
  %.18.i42 = phi i32 [ %10, %.lr.ph.i41 ], [ 0, %.preheader.i39 ]
  %.037.i43 = phi ptr [ %9, %.lr.ph.i41 ], [ %1, %.preheader.i39 ]
  %9 = getelementptr inbounds nuw i8, ptr %.037.i43, i64 1
  %10 = add i32 %.18.i42, 1
  %11 = load i8, ptr %9, align 1
  %.not5.i44 = icmp eq i8 %11, 0
  br i1 %.not5.i44, label %TextLength.exit46, label %.lr.ph.i41

TextLength.exit46:                                ; preds = %.lr.ph.i41, %TextLength.exit, %.preheader.i39
  %.0.i45 = phi i32 [ 0, %TextLength.exit ], [ 0, %.preheader.i39 ], [ %10, %.lr.ph.i41 ]
  %12 = add nsw i32 %.0.i45, %.0.i
  %13 = add nsw i32 %12, 1
  %14 = sext i32 %13 to i64
  %15 = tail call noalias ptr @malloc(i64 noundef %14) #44
  %16 = icmp sgt i32 %2, 0
  br i1 %16, label %.lr.ph.preheader, label %.preheader47

.lr.ph.preheader:                                 ; preds = %TextLength.exit46
  %17 = zext nneg i32 %2 to i64
  tail call void @llvm.memcpy.p0.p0.i64(ptr align 1 %15, ptr align 1 %0, i64 %17, i1 false)
  br label %.preheader47

.preheader47:                                     ; preds = %.lr.ph.preheader, %TextLength.exit46
  %18 = add i32 %.0.i45, %2
  %19 = icmp sgt i32 %.0.i45, 0
  br i1 %19, label %.lr.ph52.preheader, label %.preheader

.lr.ph52.preheader:                               ; preds = %.preheader47
  %20 = sext i32 %2 to i64
  %scevgep = getelementptr i8, ptr %15, i64 %20
  %scevgep57 = getelementptr i8, ptr %1, i64 %20
  %21 = add i32 %2, 1
  %smax = tail call i32 @llvm.smax.i32(i32 %18, i32 %21)
  %22 = xor i32 %2, -1
  %23 = add i32 %smax, %22
  %24 = zext i32 %23 to i64
  %25 = add nuw nsw i64 %24, 1
  tail call void @llvm.memcpy.p0.p0.i64(ptr noundef nonnull align 1 dereferenceable(1) %scevgep, ptr noundef nonnull align 1 dereferenceable(1) %scevgep57, i64 %25, i1 false)
  br label %.preheader

.preheader:                                       ; preds = %.lr.ph52.preheader, %.preheader47
  %26 = icmp slt i32 %2, %.0.i
  br i1 %26, label %.lr.ph54.preheader, label %._crit_edge

.lr.ph54.preheader:                               ; preds = %.preheader
  %27 = sext i32 %18 to i64
  %scevgep59 = getelementptr i8, ptr %15, i64 %27
  %scevgep60 = getelementptr i8, ptr %0, i64 %27
  %28 = add i32 %18, 1
  %smax61 = tail call i32 @llvm.smax.i32(i32 %28, i32 %12)
  %29 = xor i32 %.0.i45, -1
  %30 = add i32 %smax61, %29
  %31 = sub i32 %30, %2
  %32 = zext i32 %31 to i64
  %33 = add nuw nsw i64 %32, 1
  tail call void @llvm.memcpy.p0.p0.i64(ptr noundef nonnull align 1 dereferenceable(1) %scevgep59, ptr noundef nonnull align 1 dereferenceable(1) %scevgep60, i64 %33, i1 false)
  br label %._crit_edge

._crit_edge:                                      ; preds = %.lr.ph54.preheader, %.preheader
  %34 = sext i32 %12 to i64
  %35 = getelementptr inbounds i8, ptr %15, i64 %34
  store i8 0, ptr %35, align 1
  ret ptr %15
}